; Function Attrs: mustprogress nounwind uwtable
define hidden void @_ZN16PSGenerationPool16get_memory_usageEv(ptr dead_on_unwind noalias nocapture writable writeonly sret(%class.MemoryUsage) align 8 %0, ptr noundef nonnull align 8 dereferenceable(216) %1) unnamed_addr #0 align 2 {
  %3 = getelementptr inbounds i8, ptr %1, i64 40
  %4 = load i8, ptr %3, align 8
  %5 = trunc i8 %4 to i1
  br i1 %5, label %6, label %11

6:                                                ; preds = %2
  %7 = load ptr, ptr %1, align 8
  %8 = getelementptr inbounds i8, ptr %7, i64 16
  %9 = load ptr, ptr %8, align 8
  %10 = tail call noundef i64 %9(ptr noundef nonnull align 8 dereferenceable(216) %1) #3
  br label %11

11:                                               ; preds = %2, %6
  %12 = phi i64 [ %10, %6 ], [ 0, %2 ]
  %13 = load ptr, ptr %1, align 8
  %14 = getelementptr inbounds i8, ptr %13, i64 40
  %15 = load ptr, ptr %14, align 8
  %16 = tail call noundef i64 %15(ptr noundef nonnull align 8 dereferenceable(216) %1) #3
  %17 = getelementptr inbounds i8, ptr %1, i64 208
  %18 = load ptr, ptr %17, align 8
  %19 = getelementptr inbounds i8, ptr %18, i64 88
  %20 = load ptr, ptr %19, align 8
  %21 = getelementptr inbounds i8, ptr %20, i64 48
  %22 = load ptr, ptr %21, align 8
  %23 = getelementptr inbounds i8, ptr %20, i64 32
  %24 = load ptr, ptr %23, align 8
  %25 = ptrtoint ptr %22 to i64
  %26 = ptrtoint ptr %24 to i64
  %27 = sub i64 %25, %26
  %28 = and i64 %27, -8
  %29 = getelementptr inbounds i8, ptr %1, i64 24
  %30 = load i64, ptr %29, align 8
  store i64 %30, ptr %0, align 8
  %31 = getelementptr inbounds i8, ptr %0, i64 8
  store i64 %16, ptr %31, align 8
  %32 = getelementptr inbounds i8, ptr %0, i64 16
  store i64 %28, ptr %32, align 8
  %33 = getelementptr inbounds i8, ptr %0, i64 24
  store i64 %12, ptr %33, align 8
  ret void
}